target datalayout = "e-m:e-p270:32:32-p271:32:32-p272:64:64-i64:64-i128:128-f80:128-n8:16:32:64-S128"
target triple = "x86_64-pc-linux-gnu"

%"class.nanobind::handle" = type { ptr }
%"struct.nanobind::detail::type_caster.1189" = type { %"struct.nanobind::detail::type_caster_base.1190" }
%"struct.nanobind::detail::type_caster_base.1190" = type { ptr }
%struct.BasicID2 = type { i64 }
%"class.std::variant.1202" = type { %"struct.std::__detail::__variant::_Variant_base.base.1219", [7 x i8] }
%"struct.std::__detail::__variant::_Variant_base.base.1219" = type { %"struct.std::__detail::__variant::_Move_assign_base.base.1218" }
%"struct.std::__detail::__variant::_Move_assign_base.base.1218" = type { %"struct.std::__detail::__variant::_Copy_assign_base.base.1217" }
%"struct.std::__detail::__variant::_Copy_assign_base.base.1217" = type { %"struct.std::__detail::__variant::_Move_ctor_base.base.1216" }
%"struct.std::__detail::__variant::_Move_ctor_base.base.1216" = type { %"struct.std::__detail::__variant::_Copy_ctor_base.base.1215" }
%"struct.std::__detail::__variant::_Copy_ctor_base.base.1215" = type { %"struct.std::__detail::__variant::_Variant_storage.base.1214" }
%"struct.std::__detail::__variant::_Variant_storage.base.1214" = type <{ %"union.std::__detail::__variant::_Variadic_union.1209", i8 }>
%"union.std::__detail::__variant::_Variadic_union.1209" = type { %"union.std::__detail::__variant::_Variadic_union.1210" }
%"union.std::__detail::__variant::_Variadic_union.1210" = type { %"struct.std::__detail::__variant::_Uninitialized.1211" }
%"struct.std::__detail::__variant::_Uninitialized.1211" = type { %struct.BasicID2 }
%"struct.std::__detail::__variant::_Variant_storage.1208" = type <{ %"union.std::__detail::__variant::_Variadic_union.1209", i8, [7 x i8] }>
%"struct.nanobind::detail::type_caster.1240" = type { %"class.std::variant.1202" }

@_ZTIZL26nanobind_init_test_stl_extRN8nanobind7module_EE8BasicID2 = internal constant { ptr, ptr } { ptr getelementptr inbounds (ptr, ptr @_ZTVN10__cxxabiv117__class_type_infoE, i64 2), ptr @_ZTSZL26nanobind_init_test_stl_extRN8nanobind7module_EE8BasicID2 }, align 8

; Function Attrs: mustprogress nounwind optsize uwtable
define internal noundef nonnull align 8 dereferenceable(8) ptr @_ZNRSt8__detail9__variant14_UninitializedIZL26nanobind_init_test_stl_extRN8nanobind7module_EE8BasicID2Lb1EE6_M_getEv(ptr noundef nonnull align 8 dereferenceable(8) %0) #2 align 2 {
  %2 = alloca ptr, align 8
  store ptr %0, ptr %2, align 8, !tbaa !2220
  %3 = load ptr, ptr %2, align 8
  %4 = getelementptr inbounds nuw %"struct.std::__detail::__variant::_Uninitialized.1211", ptr %3, i32 0, i32 0
  ret ptr %4
}

; Function Attrs: inlinehint mustprogress nounwind optsize uwtable
define internal void @_ZSt10_ConstructIZL26nanobind_init_test_stl_extRN8nanobind7module_EE8BasicID2JRS3_EEvPT_DpOT0_(ptr noundef %0, ptr noundef nonnull align 8 dereferenceable(8) %1) #11 {
  %3 = alloca ptr, align 8
  %4 = alloca ptr, align 8
  store ptr %0, ptr %3, align 8, !tbaa !2170
  store ptr %1, ptr %4, align 8, !tbaa !2170
  %5 = load ptr, ptr %3, align 8, !tbaa !2170
  %6 = load ptr, ptr %4, align 8, !tbaa !2170
  call void @llvm.memcpy.p0.p0.i64(ptr align 8 %5, ptr align 8 %6, i64 8, i1 false), !tbaa.struct !2234
  ret void
}

; Function Attrs: mustprogress nounwind optsize uwtable
define internal noundef nonnull align 8 dereferenceable(8) ptr @_ZNSt8__detail9__variant7__get_nILm1ERNS0_15_Variadic_unionIJSt9monostateZL26nanobind_init_test_stl_extRN8nanobind7module_EE8BasicID2ZL26nanobind_init_test_stl_extS6_E8BasicID1EEEEEDcOT0_(ptr noundef nonnull align 8 dereferenceable(8) %0) #2 {
  %2 = alloca ptr, align 8
  store ptr %0, ptr %2, align 8, !tbaa !2208
  %3 = load ptr, ptr %2, align 8, !tbaa !2208
  %4 = call noundef nonnull align 8 dereferenceable(8) ptr @_ZNRSt8__detail9__variant14_UninitializedIZL26nanobind_init_test_stl_extRN8nanobind7module_EE8BasicID2Lb1EE6_M_getEv(ptr noundef nonnull align 8 dereferenceable(8) %3) #23
  ret ptr %4
}

; Function Attrs: mustprogress nounwind optsize uwtable
define internal void @_ZNSt8__detail9__variant16_Variant_storageILb1EJSt9monostateZL26nanobind_init_test_stl_extRN8nanobind7module_EE8BasicID2ZL26nanobind_init_test_stl_extS5_E8BasicID1EE8_M_resetEv(ptr noundef nonnull align 8 dereferenceable(9) %0) #2 align 2 {
  %2 = alloca ptr, align 8
  store ptr %0, ptr %2, align 8, !tbaa !2204
  %3 = load ptr, ptr %2, align 8
  %4 = getelementptr inbounds nuw %"struct.std::__detail::__variant::_Variant_storage.1208", ptr %3, i32 0, i32 1
  store i8 -1, ptr %4, align 8, !tbaa !2206
  ret void
}

; Function Attrs: inlinehint mustprogress optsize uwtable
define internal void @_ZNSt8__detail9__variant9__emplaceILm1ELb1EJSt9monostateZL26nanobind_init_test_stl_extRN8nanobind7module_EE8BasicID2ZL26nanobind_init_test_stl_extS5_E8BasicID1EJRS6_EEEvRNS0_16_Variant_storageIXT0_EJDpT1_EEEDpOT2_(ptr noundef nonnull align 8 dereferenceable(9) %0, ptr noundef nonnull align 8 dereferenceable(8) %1) #10 {
  %3 = alloca ptr, align 8
  %4 = alloca ptr, align 8
  %5 = alloca ptr, align 8
  store ptr %0, ptr %3, align 8, !tbaa !2204
  store ptr %1, ptr %4, align 8, !tbaa !2170
  %6 = load ptr, ptr %3, align 8, !tbaa !2204
  call void @_ZNSt8__detail9__variant16_Variant_storageILb1EJSt9monostateZL26nanobind_init_test_stl_extRN8nanobind7module_EE8BasicID2ZL26nanobind_init_test_stl_extS5_E8BasicID1EE8_M_resetEv(ptr noundef nonnull align 8 dereferenceable(9) %6) #23
  call void @llvm.lifetime.start.p0(i64 8, ptr %5) #21
  %7 = load ptr, ptr %3, align 8, !tbaa !2204
  %8 = getelementptr inbounds nuw %"struct.std::__detail::__variant::_Variant_storage.1208", ptr %7, i32 0, i32 0
  %9 = call noundef nonnull align 8 dereferenceable(8) ptr @_ZNSt8__detail9__variant7__get_nILm1ERNS0_15_Variadic_unionIJSt9monostateZL26nanobind_init_test_stl_extRN8nanobind7module_EE8BasicID2ZL26nanobind_init_test_stl_extS6_E8BasicID1EEEEEDcOT0_(ptr noundef nonnull align 8 dereferenceable(8) %8) #23
  store ptr %9, ptr %5, align 8, !tbaa !2170
  %10 = load ptr, ptr %5, align 8, !tbaa !2170
  %11 = load ptr, ptr %4, align 8, !tbaa !2170
  call void @_ZSt10_ConstructIZL26nanobind_init_test_stl_extRN8nanobind7module_EE8BasicID2JRS3_EEvPT_DpOT0_(ptr noundef %10, ptr noundef nonnull align 8 dereferenceable(8) %11) #22
  %12 = load ptr, ptr %3, align 8, !tbaa !2204
  %13 = getelementptr inbounds nuw %"struct.std::__detail::__variant::_Variant_storage.1208", ptr %12, i32 0, i32 1
  store i8 1, ptr %13, align 8, !tbaa !2206
  call void @llvm.lifetime.end.p0(i64 8, ptr %5) #21
  ret void
}

; Function Attrs: mustprogress optsize uwtable
define internal noundef nonnull align 8 dereferenceable(8) ptr @_ZNSt7variantIJSt9monostateZL26nanobind_init_test_stl_extRN8nanobind7module_EE8BasicID2ZL26nanobind_init_test_stl_extS3_E8BasicID1EE7emplaceILm1EJRS4_EEENSt9enable_ifIX18is_constructible_vINSt9_Nth_typeIXT_EJS0_S4_S5_EE4typeEDpT0_EERSC_E4typeEDpOSD_(ptr noundef nonnull align 8 dereferenceable(9) %0, ptr noundef nonnull align 8 dereferenceable(8) %1) #0 align 2 {
  %3 = alloca ptr, align 8
  %4 = alloca ptr, align 8
  store ptr %0, ptr %3, align 8, !tbaa !2192
  store ptr %1, ptr %4, align 8, !tbaa !2170
  %5 = load ptr, ptr %3, align 8
  %6 = load ptr, ptr %4, align 8, !tbaa !2170
  call void @_ZNSt8__detail9__variant9__emplaceILm1ELb1EJSt9monostateZL26nanobind_init_test_stl_extRN8nanobind7module_EE8BasicID2ZL26nanobind_init_test_stl_extS5_E8BasicID1EJRS6_EEEvRNS0_16_Variant_storageIXT0_EJDpT1_EEEDpOT2_(ptr noundef nonnull align 8 dereferenceable(9) %5, ptr noundef nonnull align 8 dereferenceable(8) %6) #22
  %7 = call noundef nonnull align 8 dereferenceable(8) ptr @_ZSt3getILm1EJSt9monostateZL26nanobind_init_test_stl_extRN8nanobind7module_EE8BasicID2ZL26nanobind_init_test_stl_extS3_E8BasicID1EERNSt19variant_alternativeIXT_ESt7variantIJDpT0_EEE4typeERSA_(ptr noundef nonnull align 8 dereferenceable(9) %5) #22
  ret ptr %7
}

; Function Attrs: mustprogress nounwind optsize uwtable
define internal noundef i64 @_ZNKSt7variantIJSt9monostateZL26nanobind_init_test_stl_extRN8nanobind7module_EE8BasicID2ZL26nanobind_init_test_stl_extS3_E8BasicID1EE5indexEv(ptr noundef nonnull align 8 dereferenceable(9) %0) #2 align 2 {
  %2 = alloca ptr, align 8
  store ptr %0, ptr %2, align 8, !tbaa !2192
  %3 = load ptr, ptr %2, align 8
  %4 = getelementptr inbounds nuw %"struct.std::__detail::__variant::_Variant_storage.1208", ptr %3, i32 0, i32 1
  %5 = load i8, ptr %4, align 8, !tbaa !2206
  %6 = zext i8 %5 to i64
  ret i64 %6
}

; Function Attrs: alwaysinline mustprogress nounwind optsize uwtable
define linkonce_odr hidden noundef ptr @_ZNK8nanobind6handle3ptrEv(ptr noundef nonnull align 8 dereferenceable(8) %0) #3 comdat align 2 {
  %2 = alloca ptr, align 8
  store ptr %0, ptr %2, align 8, !tbaa !17
  %3 = load ptr, ptr %2, align 8
  %4 = getelementptr inbounds nuw %"class.nanobind::handle", ptr %3, i32 0, i32 0
  %5 = load ptr, ptr %4, align 8, !tbaa !19
  ret ptr %5
}

; Function Attrs: mustprogress nounwind optsize uwtable
define internal noundef nonnull align 8 dereferenceable(9) ptr @_ZNSt7variantIJSt9monostateZL26nanobind_init_test_stl_extRN8nanobind7module_EE8BasicID2ZL26nanobind_init_test_stl_extS3_E8BasicID1EEaSIRS4_EENSt9enable_ifIXaaaa14__exactly_onceINSt9_Nth_typeIX16__accepted_indexIOT_EEJS0_S4_S5_EE4typeEE18is_constructible_vISE_SB_E15is_assignable_vIRSE_SB_EERS6_E4typeESC_(ptr noundef nonnull align 8 dereferenceable(9) %0, ptr noundef nonnull align 8 dereferenceable(8) %1) #2 align 2 personality ptr @__gxx_personality_v0 {
  %3 = alloca ptr, align 8
  %4 = alloca ptr, align 8
  %5 = alloca i64, align 8
  store ptr %0, ptr %3, align 8, !tbaa !2192
  store ptr %1, ptr %4, align 8, !tbaa !2170
  %6 = load ptr, ptr %3, align 8
  call void @llvm.lifetime.start.p0(i64 8, ptr %5) #21
  store i64 1, ptr %5, align 8, !tbaa !142
  %7 = call noundef i64 @_ZNKSt7variantIJSt9monostateZL26nanobind_init_test_stl_extRN8nanobind7module_EE8BasicID2ZL26nanobind_init_test_stl_extS3_E8BasicID1EE5indexEv(ptr noundef nonnull align 8 dereferenceable(9) %6) #23
  %8 = icmp eq i64 %7, 1
  br i1 %8, label %9, label %13

9:                                                ; preds = %2
  %10 = load ptr, ptr %4, align 8, !tbaa !2170
  %11 = invoke noundef nonnull align 8 dereferenceable(8) ptr @_ZSt3getILm1EJSt9monostateZL26nanobind_init_test_stl_extRN8nanobind7module_EE8BasicID2ZL26nanobind_init_test_stl_extS3_E8BasicID1EERNSt19variant_alternativeIXT_ESt7variantIJDpT0_EEE4typeERSA_(ptr noundef nonnull align 8 dereferenceable(9) %6) #22
          to label %12 unwind label %18

12:                                               ; preds = %9
  call void @llvm.memcpy.p0.p0.i64(ptr align 8 %11, ptr align 8 %10, i64 8, i1 false), !tbaa.struct !2234
  br label %17

13:                                               ; preds = %2
  %14 = load ptr, ptr %4, align 8, !tbaa !2170
  %15 = invoke noundef nonnull align 8 dereferenceable(8) ptr @_ZNSt7variantIJSt9monostateZL26nanobind_init_test_stl_extRN8nanobind7module_EE8BasicID2ZL26nanobind_init_test_stl_extS3_E8BasicID1EE7emplaceILm1EJRS4_EEENSt9enable_ifIX18is_constructible_vINSt9_Nth_typeIXT_EJS0_S4_S5_EE4typeEDpT0_EERSC_E4typeEDpOSD_(ptr noundef nonnull align 8 dereferenceable(9) %6, ptr noundef nonnull align 8 dereferenceable(8) %14) #22
          to label %16 unwind label %18

16:                                               ; preds = %13
  br label %17

17:                                               ; preds = %16, %12
  call void @llvm.lifetime.end.p0(i64 8, ptr %5) #21
  ret ptr %6

18:                                               ; preds = %13, %9
  %19 = landingpad { ptr, i32 }
          catch ptr null
  %20 = extractvalue { ptr, i32 } %19, 0
  call void @__clang_call_terminate(ptr %20) #26
  unreachable
}

; Function Attrs: mustprogress optsize uwtable
define internal noundef nonnull align 8 dereferenceable(8) ptr @_ZN8nanobind6detail16type_caster_baseIZL26nanobind_init_test_stl_extRNS_7module_EE8BasicID2EcvRS4_Ev(ptr noundef nonnull align 8 dereferenceable(8) %0) #0 align 2 {
  %2 = alloca ptr, align 8
  store ptr %0, ptr %2, align 8, !tbaa !2166
  %3 = load ptr, ptr %2, align 8
  %4 = getelementptr inbounds nuw %"struct.nanobind::detail::type_caster_base.1190", ptr %3, i32 0, i32 0
  %5 = load ptr, ptr %4, align 8, !tbaa !2168
  call void @_ZN8nanobind6detail27raise_next_overload_if_nullEPv(ptr noundef %5) #22
  %6 = getelementptr inbounds nuw %"struct.nanobind::detail::type_caster_base.1190", ptr %3, i32 0, i32 0
  %7 = load ptr, ptr %6, align 8, !tbaa !2168
  ret ptr %7
}

; Function Attrs: mustprogress nounwind optsize uwtable
define internal noundef zeroext i1 @_ZNK8nanobind6detail16type_caster_baseIZL26nanobind_init_test_stl_extRNS_7module_EE8BasicID2E8can_castIS4_EEbv(ptr noundef nonnull align 8 dereferenceable(8) %0) #2 align 2 {
  %2 = alloca ptr, align 8
  store ptr %0, ptr %2, align 8, !tbaa !2166
  %3 = load ptr, ptr %2, align 8
  %4 = getelementptr inbounds nuw %"struct.nanobind::detail::type_caster_base.1190", ptr %3, i32 0, i32 0
  %5 = load ptr, ptr %4, align 8, !tbaa !2168
  %6 = icmp ne ptr %5, null
  ret i1 %6
}

; Function Attrs: alwaysinline mustprogress nounwind optsize uwtable
define internal noundef zeroext i1 @_ZN8nanobind6detail16type_caster_baseIZL26nanobind_init_test_stl_extRNS_7module_EE8BasicID2E11from_pythonENS_6handleEhPNS0_12cleanup_listE(ptr noundef nonnull align 8 dereferenceable(8) %0, ptr %1, i8 noundef zeroext %2, ptr noundef %3) #3 align 2 {
  %5 = alloca %"class.nanobind::handle", align 8
  %6 = alloca ptr, align 8
  %7 = alloca i8, align 1
  %8 = alloca ptr, align 8
  %9 = getelementptr inbounds nuw %"class.nanobind::handle", ptr %5, i32 0, i32 0
  store ptr %1, ptr %9, align 8
  store ptr %0, ptr %6, align 8, !tbaa !2166
  store i8 %2, ptr %7, align 1, !tbaa !57
  store ptr %3, ptr %8, align 8, !tbaa !167
  %10 = load ptr, ptr %6, align 8
  %11 = call noundef ptr @_ZNK8nanobind6handle3ptrEv(ptr noundef nonnull align 8 dereferenceable(8) %5) #22
  %12 = load i8, ptr %7, align 1, !tbaa !57
  %13 = load ptr, ptr %8, align 8, !tbaa !167
  %14 = getelementptr inbounds nuw %"struct.nanobind::detail::type_caster_base.1190", ptr %10, i32 0, i32 0
  %15 = call noundef zeroext i1 @_ZN8nanobind6detail11nb_type_getEPKSt9type_infoP7_objecthPNS0_12cleanup_listEPPv(ptr noundef @_ZTIZL26nanobind_init_test_stl_extRN8nanobind7module_EE8BasicID2, ptr noundef %11, i8 noundef zeroext %12, ptr noundef %13, ptr noundef %14) #23
  ret i1 %15
}

; Function Attrs: alwaysinline mustprogress nounwind optsize uwtable
define internal noundef zeroext i8 @_ZN8nanobind6detail22flags_for_local_casterIZL26nanobind_init_test_stl_extRNS_7module_EE8BasicID2EEhh(i8 noundef zeroext %0) #3 {
  %2 = alloca i8, align 1
  %3 = alloca i8, align 1
  store i8 %0, ptr %2, align 1, !tbaa !57
  call void @llvm.lifetime.start.p0(i64 1, ptr %3) #21
  store i8 0, ptr %3, align 1, !tbaa !103
  %4 = load i8, ptr %2, align 1, !tbaa !57
  call void @llvm.lifetime.end.p0(i64 1, ptr %3) #21
  ret i8 %4
}

; Function Attrs: mustprogress optsize uwtable
define internal noundef zeroext i1 @_ZN8nanobind6detail11type_casterISt7variantIJSt9monostateZL26nanobind_init_test_stl_extRNS_7module_EE8BasicID2ZL26nanobind_init_test_stl_extS5_E8BasicID1EEiE11try_variantIS6_EEbRKNS_6handleEhPNS0_12cleanup_listE(ptr noundef nonnull align 8 dereferenceable(16) %0, ptr noundef nonnull align 8 dereferenceable(8) %1, i8 noundef zeroext %2, ptr noundef %3) #0 align 2 {
  %5 = alloca i1, align 1
  %6 = alloca ptr, align 8
  %7 = alloca ptr, align 8
  %8 = alloca i8, align 1
  %9 = alloca ptr, align 8
  %10 = alloca %"struct.nanobind::detail::type_caster.1189", align 8
  %11 = alloca %"class.nanobind::handle", align 8
  %12 = alloca i32, align 4
  store ptr %0, ptr %6, align 8, !tbaa !2230
  store ptr %1, ptr %7, align 8, !tbaa !17
  store i8 %2, ptr %8, align 1, !tbaa !57
  store ptr %3, ptr %9, align 8, !tbaa !167
  %13 = load ptr, ptr %6, align 8
  call void @llvm.lifetime.start.p0(i64 8, ptr %10) #21
  %14 = load ptr, ptr %7, align 8, !tbaa !17
  call void @llvm.memcpy.p0.p0.i64(ptr align 8 %11, ptr align 8 %14, i64 8, i1 false)
  %15 = load i8, ptr %8, align 1, !tbaa !57
  %16 = call noundef zeroext i8 @_ZN8nanobind6detail22flags_for_local_casterIZL26nanobind_init_test_stl_extRNS_7module_EE8BasicID2EEhh(i8 noundef zeroext %15) #23
  %17 = load ptr, ptr %9, align 8, !tbaa !167
  %18 = getelementptr inbounds nuw %"class.nanobind::handle", ptr %11, i32 0, i32 0
  %19 = load ptr, ptr %18, align 8
  %20 = call noundef zeroext i1 @_ZN8nanobind6detail16type_caster_baseIZL26nanobind_init_test_stl_extRNS_7module_EE8BasicID2E11from_pythonENS_6handleEhPNS0_12cleanup_listE(ptr noundef nonnull align 8 dereferenceable(8) %10, ptr %19, i8 noundef zeroext %16, ptr noundef %17) #23
  br i1 %20, label %21, label %23

21:                                               ; preds = %4
  %22 = call noundef zeroext i1 @_ZNK8nanobind6detail16type_caster_baseIZL26nanobind_init_test_stl_extRNS_7module_EE8BasicID2E8can_castIS4_EEbv(ptr noundef nonnull align 8 dereferenceable(8) %10) #23
  br i1 %22, label %24, label %23

23:                                               ; preds = %21, %4
  store i1 false, ptr %5, align 1
  store i32 1, ptr %12, align 4
  br label %28

24:                                               ; preds = %21
  %25 = call noundef nonnull align 8 dereferenceable(8) ptr @_ZN8nanobind6detail16type_caster_baseIZL26nanobind_init_test_stl_extRNS_7module_EE8BasicID2EcvRS4_Ev(ptr noundef nonnull align 8 dereferenceable(8) %10) #22
  %26 = getelementptr inbounds nuw %"struct.nanobind::detail::type_caster.1240", ptr %13, i32 0, i32 0
  %27 = call noundef nonnull align 8 dereferenceable(9) ptr @_ZNSt7variantIJSt9monostateZL26nanobind_init_test_stl_extRN8nanobind7module_EE8BasicID2ZL26nanobind_init_test_stl_extS3_E8BasicID1EEaSIRS4_EENSt9enable_ifIXaaaa14__exactly_onceINSt9_Nth_typeIX16__accepted_indexIOT_EEJS0_S4_S5_EE4typeEE18is_constructible_vISE_SB_E15is_assignable_vIRSE_SB_EERS6_E4typeESC_(ptr noundef nonnull align 8 dereferenceable(9) %26, ptr noundef nonnull align 8 dereferenceable(8) %25) #23
  store i1 true, ptr %5, align 1
  store i32 1, ptr %12, align 4
  br label %28

28:                                               ; preds = %24, %23
  call void @llvm.lifetime.end.p0(i64 8, ptr %10) #21
  %29 = load i1, ptr %5, align 1
  ret i1 %29
}