; Function Attrs: mustprogress optsize uwtable
define internal fastcc noundef zeroext i1 @_ZN8nanobind6detail11type_casterISt7variantIJSt9monostateZL26nanobind_init_test_stl_extRNS_7module_EE8BasicID2ZL26nanobind_init_test_stl_extS5_E8BasicID1EEiE11try_variantIS6_EEbRKNS_6handleEhPNS0_12cleanup_listE(ptr noundef nonnull align 8 dereferenceable(16) %0, ptr %.0.val, i8 noundef zeroext %1, ptr noundef %2) unnamed_addr #0 align 2 personality ptr @__gxx_personality_v0 {
  %4 = alloca %"struct.nanobind::detail::type_caster.1189", align 8
  call void @llvm.lifetime.start.p0(i64 8, ptr nonnull %4) #28
  %5 = call noundef zeroext i1 @_ZN8nanobind6detail11nb_type_getEPKSt9type_infoP7_objecthPNS0_12cleanup_listEPPv(ptr noundef nonnull @_ZTIZL26nanobind_init_test_stl_extRN8nanobind7module_EE8BasicID2, ptr noundef %.0.val, i8 noundef zeroext %1, ptr noundef %2, ptr noundef nonnull align 8 dereferenceable(8) %4) #27
  br i1 %5, label %6, label %_ZNSt7variantIJSt9monostateZL26nanobind_init_test_stl_extRN8nanobind7module_EE8BasicID2ZL26nanobind_init_test_stl_extS3_E8BasicID1EEaSIRS4_EENSt9enable_ifIXaaaa14__exactly_onceINSt9_Nth_typeIX16__accepted_indexIOT_EEJS0_S4_S5_EE4typeEE18is_constructible_vISE_SB_E15is_assignable_vIRSE_SB_EERS6_E4typeESC_.exit

6:                                                ; preds = %3
  %.val = load ptr, ptr %4, align 8, !tbaa !724
  %.not = icmp eq ptr %.val, null
  br i1 %.not, label %_ZNSt7variantIJSt9monostateZL26nanobind_init_test_stl_extRN8nanobind7module_EE8BasicID2ZL26nanobind_init_test_stl_extS3_E8BasicID1EEaSIRS4_EENSt9enable_ifIXaaaa14__exactly_onceINSt9_Nth_typeIX16__accepted_indexIOT_EEJS0_S4_S5_EE4typeEE18is_constructible_vISE_SB_E15is_assignable_vIRSE_SB_EERS6_E4typeESC_.exit, label %7

7:                                                ; preds = %6
  call void @_ZN8nanobind6detail27raise_next_overload_if_nullEPv(ptr noundef nonnull %.val) #30
  %8 = load ptr, ptr %4, align 8, !tbaa !724
  %9 = getelementptr inbounds nuw i8, ptr %0, i64 8
  %.val.i = load i8, ptr %9, align 8, !tbaa !737
  %10 = icmp eq i8 %.val.i, 1
  br i1 %10, label %11, label %15

11:                                               ; preds = %7
  %12 = invoke fastcc noundef nonnull align 8 dereferenceable(8) ptr @_ZSt3getILm1EJSt9monostateZL26nanobind_init_test_stl_extRN8nanobind7module_EE8BasicID2ZL26nanobind_init_test_stl_extS3_E8BasicID1EERNSt19variant_alternativeIXT_ESt7variantIJDpT0_EEE4typeERSA_(ptr noundef nonnull align 8 dereferenceable(9) %0) #30
          to label %13 unwind label %17

13:                                               ; preds = %11
  %14 = load i64, ptr %8, align 8, !tbaa !193
  store i64 %14, ptr %0, align 8, !tbaa !193
  br label %_ZNSt7variantIJSt9monostateZL26nanobind_init_test_stl_extRN8nanobind7module_EE8BasicID2ZL26nanobind_init_test_stl_extS3_E8BasicID1EEaSIRS4_EENSt9enable_ifIXaaaa14__exactly_onceINSt9_Nth_typeIX16__accepted_indexIOT_EEJS0_S4_S5_EE4typeEE18is_constructible_vISE_SB_E15is_assignable_vIRSE_SB_EERS6_E4typeESC_.exit

15:                                               ; preds = %7
  %.val3.i = load i64, ptr %8, align 8, !tbaa !193
  store i64 %.val3.i, ptr %0, align 8, !tbaa !193
  store i8 1, ptr %9, align 8, !tbaa !737
  %16 = invoke fastcc noundef nonnull align 8 dereferenceable(8) ptr @_ZSt3getILm1EJSt9monostateZL26nanobind_init_test_stl_extRN8nanobind7module_EE8BasicID2ZL26nanobind_init_test_stl_extS3_E8BasicID1EERNSt19variant_alternativeIXT_ESt7variantIJDpT0_EEE4typeERSA_(ptr noundef nonnull align 8 dereferenceable(9) %0) #30
          to label %_ZNSt7variantIJSt9monostateZL26nanobind_init_test_stl_extRN8nanobind7module_EE8BasicID2ZL26nanobind_init_test_stl_extS3_E8BasicID1EEaSIRS4_EENSt9enable_ifIXaaaa14__exactly_onceINSt9_Nth_typeIX16__accepted_indexIOT_EEJS0_S4_S5_EE4typeEE18is_constructible_vISE_SB_E15is_assignable_vIRSE_SB_EERS6_E4typeESC_.exit unwind label %17

17:                                               ; preds = %15, %11
  %18 = landingpad { ptr, i32 }
          catch ptr null
  %19 = extractvalue { ptr, i32 } %18, 0
  call void @__clang_call_terminate(ptr %19) #32
  unreachable

_ZNSt7variantIJSt9monostateZL26nanobind_init_test_stl_extRN8nanobind7module_EE8BasicID2ZL26nanobind_init_test_stl_extS3_E8BasicID1EEaSIRS4_EENSt9enable_ifIXaaaa14__exactly_onceINSt9_Nth_typeIX16__accepted_indexIOT_EEJS0_S4_S5_EE4typeEE18is_constructible_vISE_SB_E15is_assignable_vIRSE_SB_EERS6_E4typeESC_.exit: ; preds = %15, %13, %3, %6
  %.0 = phi i1 [ false, %6 ], [ false, %3 ], [ true, %13 ], [ true, %15 ]
  call void @llvm.lifetime.end.p0(i64 8, ptr nonnull %4) #28
  ret i1 %.0
}